target datalayout = "e-m:e-p270:32:32-p271:32:32-p272:64:64-i64:64-i128:128-f80:128-n8:16:32:64-S128"
target triple = "x86_64-pc-linux-gnu"

%struct.slurm_conf_t = type { i64, ptr, i16, ptr, ptr, ptr, ptr, ptr, i16, ptr, ptr, ptr, ptr, ptr, ptr, ptr, i16, ptr, ptr, ptr, ptr, i16, ptr, ptr, ptr, i64, ptr, ptr, ptr, ptr, i16, ptr, ptr, i16, i32, ptr, i32, ptr, i32, i32, ptr, ptr, i64, i64, ptr, i16, i16, ptr, i32, i32, ptr, i32, ptr, i32, i16, i16, i16, ptr, i16, i16, ptr, ptr, i32, i16, i16, ptr, i32, i16, ptr, ptr, ptr, ptr, i16, ptr, ptr, ptr, ptr, i32, ptr, ptr, ptr, ptr, i16, i16, ptr, i32, i32, i32, i16, i16, ptr, ptr, i16, ptr, ptr, i32, i32, i32, i32, i32, i64, i32, i32, i16, ptr, ptr, i32, ptr, ptr, ptr, i16, i32, ptr, ptr, i16, ptr, ptr, i32, i16, ptr, ptr, ptr, ptr, i32, i32, i16, i16, i32, ptr, i16, ptr, i32, i32, i32, i32, i32, i32, ptr, i16, ptr, ptr, i32, i16, ptr, i32, i16, i16, ptr, ptr, ptr, i16, ptr, ptr, ptr, ptr, i16, i16, ptr, i16, ptr, i16, ptr, i16, ptr, i16, ptr, ptr, ptr, ptr, i16, ptr, ptr, ptr, i32, ptr, i32, ptr, ptr, i16, ptr, ptr, i32, i16, ptr, ptr, i16, i16, ptr, i16, ptr, ptr, ptr, i32, ptr, i16, i16, ptr, ptr, ptr, ptr, ptr, ptr, ptr, ptr, i16, i32, i16, ptr, ptr, ptr, ptr, i32, ptr, ptr, ptr, i16, ptr, ptr, ptr, i16, ptr, i16, ptr, i16, i16, ptr }
%union.pthread_mutex_t = type { %struct.__pthread_mutex_s }
%struct.__pthread_mutex_s = type { i32, i32, i32, i32, i32, i16, i16, %struct.__pthread_internal_list }
%struct.__pthread_internal_list = type { ptr, ptr }
%union.pthread_cond_t = type { %struct.__pthread_cond_s }
%struct.__pthread_cond_s = type { %union.__atomic_wide_counter, %union.__atomic_wide_counter, [2 x i32], [2 x i32], i32, i32, [2 x i32] }
%union.__atomic_wide_counter = type { i64 }

@slurm_conf = external global %struct.slurm_conf_t, align 8
@agent_cnt = internal global i32 0, align 4
@agent_thread_cnt = internal global i32 0, align 4
@.str.3 = private unnamed_addr constant [29 x i8] c"%s: pthread_mutex_lock(): %m\00", align 1
@.str.6 = private unnamed_addr constant [8 x i8] c"agent.c\00", align 1
@.str.7 = private unnamed_addr constant [31 x i8] c"%s: pthread_mutex_unlock(): %m\00", align 1
@.str.19 = private unnamed_addr constant [39 x i8] c"%s:%d %s: pthread_cond_broadcast(): %m\00", align 1
@.str.22 = private unnamed_addr constant [104 x i8] c"AGENT: %s: pending_wait_time=%d->%d mail_too=%c->%c Agent_cnt=%d agent_thread_cnt=%d retry_list_size=%d\00", align 1
@__func__.agent_trigger = private unnamed_addr constant [14 x i8] c"agent_trigger\00", align 1
@pending_wait_time = internal global i32 65534, align 4
@pending_mail = internal global i8 0, align 1
@pending_mutex = internal global %union.pthread_mutex_t zeroinitializer, align 8
@pending_check_defer = internal global i8 0, align 1
@pending_cond = internal global %union.pthread_cond_t zeroinitializer, align 8
@retry_list = internal global ptr null, align 8

; Function Attrs: nounwind uwtable
define dso_local i32 @retry_list_size() #0 {
  %1 = alloca i32, align 4
  %2 = load ptr, ptr @retry_list, align 8
  %3 = icmp eq ptr %2, null
  br i1 %3, label %4, label %5

4:                                                ; preds = %0
  store i32 0, ptr %1, align 4
  br label %8

5:                                                ; preds = %0
  %6 = load ptr, ptr @retry_list, align 8
  %7 = call i32 @list_count(ptr noundef %6)
  store i32 %7, ptr %1, align 4
  br label %8

8:                                                ; preds = %5, %4
  %9 = load i32, ptr %1, align 4
  ret i32 %9
}

; Function Attrs: nounwind uwtable
define dso_local void @agent_trigger(i32 noundef %0, i1 noundef zeroext %1, i1 noundef zeroext %2) #0 {
  %4 = alloca i32, align 4
  %5 = alloca i8, align 1
  %6 = alloca i8, align 1
  %7 = alloca i32, align 4
  %8 = alloca i32, align 4
  %9 = alloca i32, align 4
  store i32 %0, ptr %4, align 4
  %10 = zext i1 %1 to i8
  store i8 %10, ptr %5, align 1
  %11 = zext i1 %2 to i8
  store i8 %11, ptr %6, align 1
  br label %12

12:                                               ; preds = %3
  %13 = load i64, ptr getelementptr inbounds nuw (%struct.slurm_conf_t, ptr @slurm_conf, i32 0, i32 42), align 8
  %14 = and i64 %13, 4503599627370496
  %15 = icmp ne i64 %14, 0
  br i1 %15, label %16, label %34

16:                                               ; preds = %12
  br label %17

17:                                               ; preds = %16
  %18 = call i32 @get_log_level()
  %19 = icmp sge i32 %18, 4
  br i1 %19, label %20, label %32

20:                                               ; preds = %17
  %21 = load i32, ptr @pending_wait_time, align 4
  %22 = load i32, ptr %4, align 4
  %23 = load i8, ptr %5, align 1, !range !10, !noundef !11
  %24 = trunc i8 %23 to i1
  %25 = select i1 %24, i32 84, i32 70
  %26 = load i8, ptr @pending_mail, align 1, !range !10, !noundef !11
  %27 = trunc i8 %26 to i1
  %28 = select i1 %27, i32 84, i32 70
  %29 = load i32, ptr @agent_cnt, align 4
  %30 = load i32, ptr @agent_thread_cnt, align 4
  %31 = call i32 @retry_list_size()
  call void (i32, ptr, ...) @log_var(i32 noundef 4, ptr noundef @.str.22, ptr noundef @__func__.agent_trigger, i32 noundef %21, i32 noundef %22, i32 noundef %25, i32 noundef %28, i32 noundef %29, i32 noundef %30, i32 noundef %31)
  br label %32

32:                                               ; preds = %20, %17
  br label %33

33:                                               ; preds = %32
  br label %34

34:                                               ; preds = %33, %12
  br label %35

35:                                               ; preds = %34
  br label %36

36:                                               ; preds = %35
  call void @llvm.lifetime.start.p0(i64 4, ptr %7) #10
  %37 = call i32 @pthread_mutex_lock(ptr noundef @pending_mutex) #10
  store i32 %37, ptr %7, align 4
  %38 = load i32, ptr %7, align 4
  %39 = icmp ne i32 %38, 0
  br i1 %39, label %40, label %43

40:                                               ; preds = %36
  %41 = load i32, ptr %7, align 4
  %42 = call ptr @__errno_location() #11
  store i32 %41, ptr %42, align 4
  call void (ptr, ...) @fatal_abort(ptr noundef @.str.3, ptr noundef @__func__.agent_trigger) #12
  unreachable

43:                                               ; preds = %36
  call void @llvm.lifetime.end.p0(i64 4, ptr %7) #10
  br label %44

44:                                               ; preds = %43
  %45 = load i32, ptr @pending_wait_time, align 4
  %46 = icmp eq i32 %45, 65534
  br i1 %46, label %51, label %47

47:                                               ; preds = %44
  %48 = load i32, ptr @pending_wait_time, align 4
  %49 = load i32, ptr %4, align 4
  %50 = icmp sgt i32 %48, %49
  br i1 %50, label %51, label %53

51:                                               ; preds = %47, %44
  %52 = load i32, ptr %4, align 4
  store i32 %52, ptr @pending_wait_time, align 4
  br label %53

53:                                               ; preds = %51, %47
  %54 = load i8, ptr %5, align 1, !range !10, !noundef !11
  %55 = trunc i8 %54 to i1
  br i1 %55, label %56, label %60

56:                                               ; preds = %53
  %57 = load i8, ptr %5, align 1, !range !10, !noundef !11
  %58 = trunc i8 %57 to i1
  %59 = zext i1 %58 to i8
  store i8 %59, ptr @pending_mail, align 1
  br label %60

60:                                               ; preds = %56, %53
  %61 = load i8, ptr %6, align 1, !range !10, !noundef !11
  %62 = trunc i8 %61 to i1
  br i1 %62, label %63, label %67

63:                                               ; preds = %60
  %64 = load i8, ptr %6, align 1, !range !10, !noundef !11
  %65 = trunc i8 %64 to i1
  %66 = zext i1 %65 to i8
  store i8 %66, ptr @pending_check_defer, align 1
  br label %67

67:                                               ; preds = %63, %60
  br label %68

68:                                               ; preds = %67
  call void @llvm.lifetime.start.p0(i64 4, ptr %8) #10
  %69 = call i32 @pthread_cond_broadcast(ptr noundef @pending_cond) #10
  store i32 %69, ptr %8, align 4
  %70 = load i32, ptr %8, align 4
  %71 = icmp ne i32 %70, 0
  br i1 %71, label %72, label %76

72:                                               ; preds = %68
  %73 = load i32, ptr %8, align 4
  %74 = call ptr @__errno_location() #11
  store i32 %73, ptr %74, align 4
  %75 = call i32 (ptr, ...) @error(ptr noundef @.str.19, ptr noundef @.str.6, i32 noundef 1680, ptr noundef @__func__.agent_trigger)
  br label %76

76:                                               ; preds = %72, %68
  call void @llvm.lifetime.end.p0(i64 4, ptr %8) #10
  br label %77

77:                                               ; preds = %76
  br label %78

78:                                               ; preds = %77
  call void @llvm.lifetime.start.p0(i64 4, ptr %9) #10
  %79 = call i32 @pthread_mutex_unlock(ptr noundef @pending_mutex) #10
  store i32 %79, ptr %9, align 4
  %80 = load i32, ptr %9, align 4
  %81 = icmp ne i32 %80, 0
  br i1 %81, label %82, label %85

82:                                               ; preds = %78
  %83 = load i32, ptr %9, align 4
  %84 = call ptr @__errno_location() #11
  store i32 %83, ptr %84, align 4
  call void (ptr, ...) @fatal_abort(ptr noundef @.str.7, ptr noundef @__func__.agent_trigger) #12
  unreachable

85:                                               ; preds = %78
  call void @llvm.lifetime.end.p0(i64 4, ptr %9) #10
  br label %86

86:                                               ; preds = %85
  ret void
}