; Function Attrs: nounwind uwtable
define dso_local void @agent_trigger(i32 noundef %0, i1 noundef zeroext %1, i1 noundef zeroext %2) local_unnamed_addr #0 {
  %4 = zext i1 %1 to i8
  %5 = zext i1 %2 to i8
  %6 = load i64, ptr getelementptr inbounds nuw (i8, ptr @slurm_conf, i64 320), align 8
  %7 = and i64 %6, 4503599627370496
  %.not = icmp eq i64 %7, 0
  br i1 %.not, label %23, label %8

8:                                                ; preds = %3
  %9 = tail call i32 @get_log_level() #14
  %10 = icmp sgt i32 %9, 3
  br i1 %10, label %11, label %23

11:                                               ; preds = %8
  %12 = load i32, ptr @pending_wait_time, align 4
  %13 = select i1 %1, i32 84, i32 70
  %14 = load i8, ptr @pending_mail, align 1, !range !10, !noundef !11
  %15 = trunc nuw i8 %14 to i1
  %16 = select i1 %15, i32 84, i32 70
  %17 = load i32, ptr @agent_cnt, align 4
  %18 = load i32, ptr @agent_thread_cnt, align 4
  %19 = load ptr, ptr @retry_list, align 8
  %20 = icmp eq ptr %19, null
  br i1 %20, label %retry_list_size.exit, label %21

21:                                               ; preds = %11
  %22 = tail call i32 @list_count(ptr noundef nonnull %19) #14
  br label %retry_list_size.exit

retry_list_size.exit:                             ; preds = %11, %21
  %.0.i = phi i32 [ %22, %21 ], [ 0, %11 ]
  tail call void (i32, ptr, ...) @log_var(i32 noundef 4, ptr noundef nonnull @.str.22, ptr noundef nonnull @__func__.agent_trigger, i32 noundef %12, i32 noundef %0, i32 noundef %13, i32 noundef %16, i32 noundef %17, i32 noundef %18, i32 noundef %.0.i) #14
  br label %23

23:                                               ; preds = %retry_list_size.exit, %8, %3
  %24 = tail call i32 @pthread_mutex_lock(ptr noundef nonnull @pending_mutex) #14
  %.not17 = icmp eq i32 %24, 0
  br i1 %.not17, label %27, label %25

25:                                               ; preds = %23
  %26 = tail call ptr @__errno_location() #15
  store i32 %24, ptr %26, align 4
  tail call void (ptr, ...) @fatal_abort(ptr noundef nonnull @.str.3, ptr noundef nonnull @__func__.agent_trigger) #16
  unreachable

27:                                               ; preds = %23
  %28 = load i32, ptr @pending_wait_time, align 4
  %29 = icmp eq i32 %28, 65534
  %30 = icmp sgt i32 %28, %0
  %or.cond = or i1 %29, %30
  br i1 %or.cond, label %31, label %32

31:                                               ; preds = %27
  store i32 %0, ptr @pending_wait_time, align 4
  br label %32

32:                                               ; preds = %27, %31
  br i1 %1, label %33, label %34

33:                                               ; preds = %32
  store i8 %4, ptr @pending_mail, align 1
  br label %34

34:                                               ; preds = %33, %32
  br i1 %2, label %35, label %36

35:                                               ; preds = %34
  store i8 %5, ptr @pending_check_defer, align 1
  br label %36

36:                                               ; preds = %34, %35
  %37 = tail call i32 @pthread_cond_broadcast(ptr noundef nonnull @pending_cond) #14
  %.not18 = icmp eq i32 %37, 0
  br i1 %.not18, label %41, label %38

38:                                               ; preds = %36
  %39 = tail call ptr @__errno_location() #15
  store i32 %37, ptr %39, align 4
  %40 = tail call i32 (ptr, ...) @error(ptr noundef nonnull @.str.19, ptr noundef nonnull @.str.6, i32 noundef 1680, ptr noundef nonnull @__func__.agent_trigger) #14
  br label %41

41:                                               ; preds = %38, %36
  %42 = tail call i32 @pthread_mutex_unlock(ptr noundef nonnull @pending_mutex) #14
  %.not19 = icmp eq i32 %42, 0
  br i1 %.not19, label %45, label %43

43:                                               ; preds = %41
  %44 = tail call ptr @__errno_location() #15
  store i32 %42, ptr %44, align 4
  tail call void (ptr, ...) @fatal_abort(ptr noundef nonnull @.str.7, ptr noundef nonnull @__func__.agent_trigger) #16
  unreachable

45:                                               ; preds = %41
  ret void
}